target datalayout = "e-m:e-p270:32:32-p271:32:32-p272:64:64-i64:64-i128:128-f80:128-n8:16:32:64-S128"
target triple = "x86_64-pc-linux-gnu"

%struct._DtBauhausWidget = type { %struct._GtkDrawingArea, i32, ptr, ptr, i32, [256 x i8], i32, ptr, i32, ptr, ptr, i32, ptr, i32, i32, i32, %struct._GtkBorder, %struct._GtkBorder, i32, %union.dt_bauhaus_data_t }
%struct._GtkDrawingArea = type { %struct._GtkWidget, ptr }
%struct._GtkWidget = type { %struct._GObject, ptr }
%struct._GObject = type { %struct._GTypeInstance, i32, ptr }
%struct._GTypeInstance = type { ptr }
%struct._GtkBorder = type { i16, i16, i16, i16 }
%union.dt_bauhaus_data_t = type { %struct.dt_bauhaus_slider_data_t }
%struct.dt_bauhaus_slider_data_t = type { float, float, float, float, float, float, float, float, float, float, i32, ptr, i32, ptr, i8, ptr, float, float, i8, i32, ptr }

@dt_bh_get_type.static_g_define_type_id = internal global i64 0, align 8
@.str.50 = private unnamed_addr constant [8 x i8] c"%+.*f%s\00", align 1
@.str.51 = private unnamed_addr constant [7 x i8] c"%.*f%s\00", align 1

; Function Attrs: nounwind uwtable
define i64 @dt_bh_get_type() #0 {
  %1 = alloca i32, align 4
  %2 = alloca i64, align 8
  %3 = alloca ptr, align 8
  %4 = alloca i64, align 8
  %5 = alloca i64, align 8
  call void @llvm.lifetime.start.p0(i64 8, ptr %2) #13
  call void @llvm.lifetime.start.p0(i64 8, ptr %3) #13
  store ptr @dt_bh_get_type.static_g_define_type_id, ptr %3, align 8, !tbaa !6
  %6 = load ptr, ptr %3, align 8, !tbaa !6
  %7 = load atomic i64, ptr %6 seq_cst, align 8
  store i64 %7, ptr %2, align 8
  %8 = load i64, ptr %2, align 8, !tbaa !11
  store i64 %8, ptr %4, align 8, !tbaa !11
  call void @llvm.lifetime.end.p0(i64 8, ptr %3) #13
  call void @llvm.lifetime.end.p0(i64 8, ptr %2) #13
  %9 = load i64, ptr %4, align 8, !tbaa !11
  %10 = icmp ne i64 %9, 0
  br i1 %10, label %14, label %11

11:                                               ; preds = %0
  %12 = call i32 @g_once_init_enter(ptr noundef @dt_bh_get_type.static_g_define_type_id)
  %13 = icmp ne i32 %12, 0
  br label %14

14:                                               ; preds = %11, %0
  %15 = phi i1 [ false, %0 ], [ %13, %11 ]
  %16 = zext i1 %15 to i32
  store i32 %16, ptr %1, align 4, !tbaa !13
  %17 = load i32, ptr %1, align 4, !tbaa !13
  %18 = icmp ne i32 %17, 0
  br i1 %18, label %19, label %22

19:                                               ; preds = %14
  call void @llvm.lifetime.start.p0(i64 8, ptr %5) #13
  %20 = call i64 @dt_bh_get_type_once()
  store i64 %20, ptr %5, align 8, !tbaa !11
  %21 = load i64, ptr %5, align 8, !tbaa !11
  call void @g_once_init_leave(ptr noundef @dt_bh_get_type.static_g_define_type_id, i64 noundef %21)
  call void @llvm.lifetime.end.p0(i64 8, ptr %5) #13
  br label %22

22:                                               ; preds = %19, %14
  %23 = load i64, ptr @dt_bh_get_type.static_g_define_type_id, align 8, !tbaa !11
  ret i64 %23
}

; Function Attrs: inlinehint nounwind uwtable
define internal ptr @DT_BAUHAUS_WIDGET(ptr noundef %0) #4 {
  %2 = alloca ptr, align 8
  store ptr %0, ptr %2, align 8, !tbaa !32
  %3 = load ptr, ptr %2, align 8, !tbaa !32
  %4 = call i64 @dt_bh_get_type()
  %5 = call ptr @g_type_check_instance_cast(ptr noundef %3, i64 noundef %4)
  ret ptr %5
}

; Function Attrs: nounwind uwtable
define ptr @dt_bauhaus_slider_get_text(ptr noundef %0, float noundef %1) #0 {
  %3 = alloca ptr, align 8
  %4 = alloca ptr, align 8
  %5 = alloca float, align 4
  %6 = alloca ptr, align 8
  %7 = alloca i32, align 4
  store ptr %0, ptr %4, align 8, !tbaa !15
  store float %1, ptr %5, align 4, !tbaa !130
  call void @llvm.lifetime.start.p0(i64 8, ptr %6) #13
  %8 = load ptr, ptr %4, align 8, !tbaa !15
  %9 = call ptr @DT_BAUHAUS_WIDGET(ptr noundef %8)
  %10 = getelementptr inbounds nuw %struct._DtBauhausWidget, ptr %9, i32 0, i32 19
  store ptr %10, ptr %6, align 8, !tbaa !140
  %11 = load ptr, ptr %6, align 8, !tbaa !140
  %12 = getelementptr inbounds nuw %struct.dt_bauhaus_slider_data_t, ptr %11, i32 0, i32 9
  %13 = load float, ptr %12, align 4, !tbaa !208
  %14 = load ptr, ptr %6, align 8, !tbaa !140
  %15 = getelementptr inbounds nuw %struct.dt_bauhaus_slider_data_t, ptr %14, i32 0, i32 16
  %16 = load float, ptr %15, align 8, !tbaa !149
  %17 = fmul reassoc nsz arcp contract afn float %13, %16
  %18 = load ptr, ptr %6, align 8, !tbaa !140
  %19 = getelementptr inbounds nuw %struct.dt_bauhaus_slider_data_t, ptr %18, i32 0, i32 17
  %20 = load float, ptr %19, align 4, !tbaa !264
  %21 = fadd reassoc nsz arcp contract afn float %17, %20
  %22 = load ptr, ptr %6, align 8, !tbaa !140
  %23 = getelementptr inbounds nuw %struct.dt_bauhaus_slider_data_t, ptr %22, i32 0, i32 8
  %24 = load float, ptr %23, align 8, !tbaa !206
  %25 = load ptr, ptr %6, align 8, !tbaa !140
  %26 = getelementptr inbounds nuw %struct.dt_bauhaus_slider_data_t, ptr %25, i32 0, i32 16
  %27 = load float, ptr %26, align 8, !tbaa !149
  %28 = fmul reassoc nsz arcp contract afn float %24, %27
  %29 = load ptr, ptr %6, align 8, !tbaa !140
  %30 = getelementptr inbounds nuw %struct.dt_bauhaus_slider_data_t, ptr %29, i32 0, i32 17
  %31 = load float, ptr %30, align 4, !tbaa !264
  %32 = fadd reassoc nsz arcp contract afn float %28, %31
  %33 = fmul reassoc nsz arcp contract afn float %21, %32
  %34 = fcmp reassoc nsz arcp contract afn olt float %33, 0.000000e+00
  br i1 %34, label %35, label %53

35:                                               ; preds = %2
  %36 = load ptr, ptr %6, align 8, !tbaa !140
  %37 = getelementptr inbounds nuw %struct.dt_bauhaus_slider_data_t, ptr %36, i32 0, i32 10
  %38 = load i32, ptr %37, align 8, !tbaa !146
  %39 = load float, ptr %5, align 4, !tbaa !130
  %40 = load ptr, ptr %6, align 8, !tbaa !140
  %41 = getelementptr inbounds nuw %struct.dt_bauhaus_slider_data_t, ptr %40, i32 0, i32 16
  %42 = load float, ptr %41, align 8, !tbaa !149
  %43 = fmul reassoc nsz arcp contract afn float %39, %42
  %44 = load ptr, ptr %6, align 8, !tbaa !140
  %45 = getelementptr inbounds nuw %struct.dt_bauhaus_slider_data_t, ptr %44, i32 0, i32 17
  %46 = load float, ptr %45, align 4, !tbaa !264
  %47 = fadd reassoc nsz arcp contract afn float %43, %46
  %48 = fpext reassoc nsz arcp contract afn float %47 to double
  %49 = load ptr, ptr %6, align 8, !tbaa !140
  %50 = getelementptr inbounds nuw %struct.dt_bauhaus_slider_data_t, ptr %49, i32 0, i32 15
  %51 = load ptr, ptr %50, align 8, !tbaa !212
  %52 = call noalias ptr (ptr, ...) @g_strdup_printf(ptr noundef @.str.50, i32 noundef %38, double noundef %48, ptr noundef %51)
  store ptr %52, ptr %3, align 8
  store i32 1, ptr %7, align 4
  br label %71

53:                                               ; preds = %2
  %54 = load ptr, ptr %6, align 8, !tbaa !140
  %55 = getelementptr inbounds nuw %struct.dt_bauhaus_slider_data_t, ptr %54, i32 0, i32 10
  %56 = load i32, ptr %55, align 8, !tbaa !146
  %57 = load float, ptr %5, align 4, !tbaa !130
  %58 = load ptr, ptr %6, align 8, !tbaa !140
  %59 = getelementptr inbounds nuw %struct.dt_bauhaus_slider_data_t, ptr %58, i32 0, i32 16
  %60 = load float, ptr %59, align 8, !tbaa !149
  %61 = fmul reassoc nsz arcp contract afn float %57, %60
  %62 = load ptr, ptr %6, align 8, !tbaa !140
  %63 = getelementptr inbounds nuw %struct.dt_bauhaus_slider_data_t, ptr %62, i32 0, i32 17
  %64 = load float, ptr %63, align 4, !tbaa !264
  %65 = fadd reassoc nsz arcp contract afn float %61, %64
  %66 = fpext reassoc nsz arcp contract afn float %65 to double
  %67 = load ptr, ptr %6, align 8, !tbaa !140
  %68 = getelementptr inbounds nuw %struct.dt_bauhaus_slider_data_t, ptr %67, i32 0, i32 15
  %69 = load ptr, ptr %68, align 8, !tbaa !212
  %70 = call noalias ptr (ptr, ...) @g_strdup_printf(ptr noundef @.str.51, i32 noundef %56, double noundef %66, ptr noundef %69)
  store ptr %70, ptr %3, align 8
  store i32 1, ptr %7, align 4
  br label %71

71:                                               ; preds = %53, %35
  call void @llvm.lifetime.end.p0(i64 8, ptr %6) #13
  %72 = load ptr, ptr %3, align 8
  ret ptr %72
}