; Function Attrs: nounwind uwtable
define noalias ptr @dt_bauhaus_slider_get_text(ptr noundef %0, float noundef %1) local_unnamed_addr #0 {
  %3 = load atomic i64, ptr @dt_bh_get_type.static_g_define_type_id seq_cst, align 8
  %.not.i.i = icmp eq i64 %3, 0
  br i1 %.not.i.i, label %4, label %DT_BAUHAUS_WIDGET.exit

4:                                                ; preds = %2
  %5 = tail call i32 @g_once_init_enter(ptr noundef nonnull @dt_bh_get_type.static_g_define_type_id) #19
  %.not4.i.i = icmp eq i32 %5, 0
  br i1 %.not4.i.i, label %DT_BAUHAUS_WIDGET.exit, label %6

6:                                                ; preds = %4
  %7 = tail call fastcc i64 @dt_bh_get_type_once()
  tail call void @g_once_init_leave(ptr noundef nonnull @dt_bh_get_type.static_g_define_type_id, i64 noundef %7) #19
  br label %DT_BAUHAUS_WIDGET.exit

DT_BAUHAUS_WIDGET.exit:                           ; preds = %2, %4, %6
  %8 = load i64, ptr @dt_bh_get_type.static_g_define_type_id, align 8, !tbaa !6
  %9 = tail call ptr @g_type_check_instance_cast(ptr noundef %0, i64 noundef %8) #19
  %10 = getelementptr inbounds nuw i8, ptr %9, i64 444
  %11 = load float, ptr %10, align 4, !tbaa !172
  %12 = getelementptr inbounds nuw i8, ptr %9, i64 496
  %13 = load float, ptr %12, align 8, !tbaa !122
  %14 = fmul reassoc nsz arcp contract afn float %13, %11
  %15 = getelementptr inbounds nuw i8, ptr %9, i64 500
  %16 = load float, ptr %15, align 4, !tbaa !218
  %17 = fadd reassoc nsz arcp contract afn float %14, %16
  %18 = getelementptr inbounds nuw i8, ptr %9, i64 440
  %19 = load float, ptr %18, align 8, !tbaa !170
  %20 = fmul reassoc nsz arcp contract afn float %19, %13
  %21 = fadd reassoc nsz arcp contract afn float %20, %16
  %22 = fmul reassoc nsz arcp contract afn float %21, %17
  %23 = fcmp reassoc nsz arcp contract afn olt float %22, 0.000000e+00
  %24 = getelementptr inbounds nuw i8, ptr %9, i64 448
  %25 = load i32, ptr %24, align 8, !tbaa !119
  %26 = fmul reassoc nsz arcp contract afn float %13, %1
  %27 = fadd reassoc nsz arcp contract afn float %26, %16
  %28 = fpext reassoc nsz arcp contract afn float %27 to double
  %29 = getelementptr inbounds nuw i8, ptr %9, i64 488
  %30 = load ptr, ptr %29, align 8, !tbaa !174
  %.str.50..str.51 = select i1 %23, ptr @.str.50, ptr @.str.51
  %31 = tail call noalias ptr (ptr, ...) @g_strdup_printf(ptr noundef nonnull %.str.50..str.51, i32 noundef %25, double noundef %28, ptr noundef %30) #19
  ret ptr %31
}